; Function Attrs: mustprogress uwtable
define void @_ZN6icu_7722UCharCharacterIteratorC2ENS_14ConstChar16PtrEii(ptr noundef nonnull align 8 dereferenceable(32) %0, ptr noundef readonly captures(none) %1, i32 noundef %2, i32 noundef %3) unnamed_addr #1 align 2 personality ptr @__gxx_personality_v0 {
  %5 = load ptr, ptr %1, align 8, !tbaa !15
  %.not = icmp eq ptr %5, null
  br i1 %.not, label %10, label %6

6:                                                ; preds = %4
  %7 = icmp sgt i32 %2, -1
  br i1 %7, label %10, label %8

8:                                                ; preds = %6
  %9 = tail call i32 @u_strlen_77(ptr noundef nonnull %5)
  br label %10

10:                                               ; preds = %8, %4, %6
  %11 = phi i32 [ %9, %8 ], [ 0, %4 ], [ %2, %6 ]
  tail call void @_ZN6icu_7717CharacterIteratorC2Eii(ptr noundef nonnull align 8 dereferenceable(24) %0, i32 noundef %11, i32 noundef %3)
  store ptr getelementptr inbounds nuw inrange(-16, 216) (i8, ptr @_ZTVN6icu_7722UCharCharacterIteratorE, i64 16), ptr %0, align 8, !tbaa !3
  %12 = load ptr, ptr %1, align 8, !tbaa !15
  %13 = getelementptr inbounds nuw i8, ptr %0, i64 24
  store ptr %12, ptr %13, align 8, !tbaa !6
  ret void
}